; ModuleID = 'source-C-CXX/24/1251.cpp'
source_filename = "source-C-CXX/24/1251.cpp"
target datalayout = "e-m:e-p270:32:32-p271:32:32-p272:64:64-i64:64-f80:128-n8:16:32:64-S128"
target triple = "x86_64-pc-linux-gnu"

%"class.std::ios_base::Init" = type { i8 }
%"class.std::basic_istream" = type { i32 (...)**, i64, %"class.std::basic_ios" }
%"class.std::basic_ios" = type { %"class.std::ios_base", %"class.std::basic_ostream"*, i8, i8, %"class.std::basic_streambuf"*, %"class.std::ctype"*, %"class.std::num_put"*, %"class.std::num_get"* }
%"class.std::ios_base" = type { i32 (...)**, i64, i64, i32, i32, i32, %"struct.std::ios_base::_Callback_list"*, %"struct.std::ios_base::_Words", [8 x %"struct.std::ios_base::_Words"], i32, %"struct.std::ios_base::_Words"*, %"class.std::locale" }
%"struct.std::ios_base::_Callback_list" = type { %"struct.std::ios_base::_Callback_list"*, void (i32, %"class.std::ios_base"*, i32)*, i32, i32 }
%"struct.std::ios_base::_Words" = type { i8*, i64 }
%"class.std::locale" = type { %"class.std::locale::_Impl"* }
%"class.std::locale::_Impl" = type { i32, %"class.std::locale::facet"**, i64, %"class.std::locale::facet"**, i8** }
%"class.std::locale::facet" = type <{ i32 (...)**, i32, [4 x i8] }>
%"class.std::basic_ostream" = type { i32 (...)**, %"class.std::basic_ios" }
%"class.std::basic_streambuf" = type { i32 (...)**, i8*, i8*, i8*, i8*, i8*, i8*, %"class.std::locale" }
%"class.std::ctype" = type <{ %"class.std::locale::facet.base", [4 x i8], %struct.__locale_struct*, i8, [7 x i8], i32*, i32*, i16*, i8, [256 x i8], [256 x i8], i8, [6 x i8] }>
%"class.std::locale::facet.base" = type <{ i32 (...)**, i32 }>
%struct.__locale_struct = type { [13 x %struct.__locale_data*], i16*, i32*, i32*, [13 x i8*] }
%struct.__locale_data = type opaque
%"class.std::num_put" = type { %"class.std::locale::facet.base", [4 x i8] }
%"class.std::num_get" = type { %"class.std::locale::facet.base", [4 x i8] }

@_ZStL8__ioinit = internal global %"class.std::ios_base::Init" zeroinitializer, align 1
@__dso_handle = external hidden global i8
@_ZSt3cin = external global %"class.std::basic_istream", align 8
@_ZSt4cout = external global %"class.std::basic_ostream", align 8
@llvm.global_ctors = appending global [1 x { i32, void ()*, i8* }] [{ i32, void ()*, i8* } { i32 65535, void ()* @_GLOBAL__sub_I_1251.cpp, i8* null }]

declare void @_ZNSt8ios_base4InitC1Ev(%"class.std::ios_base::Init"* nonnull align 1 dereferenceable(1)) unnamed_addr #0

; Function Attrs: nounwind
declare void @_ZNSt8ios_base4InitD1Ev(%"class.std::ios_base::Init"* nonnull align 1 dereferenceable(1)) unnamed_addr #1

; Function Attrs: nofree nounwind
declare i32 @__cxa_atexit(void (i8*)*, i8*, i8*) local_unnamed_addr #2

; Function Attrs: mustprogress norecurse sspstrong uwtable
define dso_local i32 @main() local_unnamed_addr #3 {
  %1 = alloca i32, align 4
  %2 = alloca [101 x i32], align 16
  %3 = bitcast i32* %1 to i8*
  call void @llvm.lifetime.start.p0i8(i64 4, i8* nonnull %3) #7
  %4 = bitcast [101 x i32]* %2 to i8*
  call void @llvm.lifetime.start.p0i8(i64 404, i8* nonnull %4) #7
  %5 = getelementptr inbounds [101 x i32], [101 x i32]* %2, i64 0, i64 0
  call void @llvm.memset.p0i8.i64(i8* noundef nonnull align 16 dereferenceable(404) %4, i8 0, i64 404, i1 false)
  store i32 1, i32* %5, align 16, !tbaa !5
  %6 = call nonnull align 8 dereferenceable(16) %"class.std::basic_istream"* @_ZNSirsERi(%"class.std::basic_istream"* nonnull align 8 dereferenceable(16) @_ZSt3cin, i32* nonnull align 4 dereferenceable(4) %1)
  %7 = load i32, i32* %1, align 4, !tbaa !5
  %8 = icmp slt i32 %7, 1
  br i1 %8, label %22, label %9

9:                                                ; preds = %0, %39
  %10 = phi i32 [ %48, %39 ], [ 1, %0 ]
  %11 = phi i32 [ %47, %39 ], [ 0, %0 ]
  %12 = icmp slt i32 %11, 0
  br i1 %12, label %39, label %13

13:                                               ; preds = %9
  %14 = zext i32 %11 to i64
  %15 = add nuw nsw i64 %14, 1
  %16 = and i64 %15, 1
  %17 = icmp eq i32 %11, 0
  br i1 %17, label %25, label %18

18:                                               ; preds = %13
  %19 = and i64 %15, 8589934590
  br label %50

20:                                               ; preds = %39
  %21 = icmp sgt i32 %47, -1
  br i1 %21, label %22, label %74

22:                                               ; preds = %0, %20
  %23 = phi i32 [ %47, %20 ], [ 0, %0 ]
  %24 = zext i32 %23 to i64
  br label %75

25:                                               ; preds = %50, %13
  %26 = phi i32 [ undef, %13 ], [ %70, %50 ]
  %27 = phi i64 [ 0, %13 ], [ %71, %50 ]
  %28 = phi i32 [ 0, %13 ], [ %70, %50 ]
  %29 = icmp eq i64 %16, 0
  br i1 %29, label %39, label %30

30:                                               ; preds = %25
  %31 = getelementptr inbounds [101 x i32], [101 x i32]* %2, i64 0, i64 %27
  %32 = load i32, i32* %31, align 4, !tbaa !5
  %33 = shl nsw i32 %32, 1
  %34 = or i32 %33, %28
  %35 = icmp sgt i32 %34, 9
  %36 = add nsw i32 %34, -10
  %37 = select i1 %35, i32 %36, i32 %34
  store i32 %37, i32* %31, align 4, !tbaa !5
  %38 = zext i1 %35 to i32
  br label %39

39:                                               ; preds = %30, %25, %9
  %40 = phi i32 [ 0, %9 ], [ %26, %25 ], [ %38, %30 ]
  %41 = add nsw i32 %11, 1
  %42 = sext i32 %41 to i64
  %43 = getelementptr inbounds [101 x i32], [101 x i32]* %2, i64 0, i64 %42
  %44 = load i32, i32* %43, align 4, !tbaa !5
  %45 = add nsw i32 %44, %40
  store i32 %45, i32* %43, align 4, !tbaa !5
  %46 = icmp eq i32 %45, 0
  %47 = select i1 %46, i32 %11, i32 %41
  %48 = add nuw i32 %10, 1
  %49 = icmp eq i32 %10, %7
  br i1 %49, label %20, label %9, !llvm.loop !9

50:                                               ; preds = %50, %18
  %51 = phi i64 [ 0, %18 ], [ %71, %50 ]
  %52 = phi i32 [ 0, %18 ], [ %70, %50 ]
  %53 = phi i64 [ %19, %18 ], [ %72, %50 ]
  %54 = getelementptr inbounds [101 x i32], [101 x i32]* %2, i64 0, i64 %51
  %55 = load i32, i32* %54, align 8, !tbaa !5
  %56 = shl nsw i32 %55, 1
  %57 = or i32 %56, %52
  %58 = icmp sgt i32 %57, 9
  %59 = add nsw i32 %57, -10
  %60 = select i1 %58, i32 %59, i32 %57
  %61 = zext i1 %58 to i32
  store i32 %60, i32* %54, align 8, !tbaa !5
  %62 = or i64 %51, 1
  %63 = getelementptr inbounds [101 x i32], [101 x i32]* %2, i64 0, i64 %62
  %64 = load i32, i32* %63, align 4, !tbaa !5
  %65 = shl nsw i32 %64, 1
  %66 = or i32 %65, %61
  %67 = icmp sgt i32 %66, 9
  %68 = add nsw i32 %66, -10
  %69 = select i1 %67, i32 %68, i32 %66
  %70 = zext i1 %67 to i32
  store i32 %69, i32* %63, align 4, !tbaa !5
  %71 = add nuw nsw i64 %51, 2
  %72 = add i64 %53, -2
  %73 = icmp eq i64 %72, 0
  br i1 %73, label %25, label %50, !llvm.loop !11

74:                                               ; preds = %75, %20
  call void @llvm.lifetime.end.p0i8(i64 404, i8* nonnull %4) #7
  call void @llvm.lifetime.end.p0i8(i64 4, i8* nonnull %3) #7
  ret i32 0

75:                                               ; preds = %22, %75
  %76 = phi i64 [ %24, %22 ], [ %81, %75 ]
  %77 = getelementptr inbounds [101 x i32], [101 x i32]* %2, i64 0, i64 %76
  %78 = load i32, i32* %77, align 4, !tbaa !5
  %79 = call nonnull align 8 dereferenceable(8) %"class.std::basic_ostream"* @_ZNSolsEi(%"class.std::basic_ostream"* nonnull align 8 dereferenceable(8) @_ZSt4cout, i32 %78)
  %80 = icmp sgt i64 %76, 0
  %81 = add nsw i64 %76, -1
  br i1 %80, label %75, label %74, !llvm.loop !12
}

; Function Attrs: argmemonly mustprogress nofree nosync nounwind willreturn
declare void @llvm.lifetime.start.p0i8(i64 immarg, i8* nocapture) #4

; Function Attrs: argmemonly mustprogress nofree nounwind willreturn writeonly
declare void @llvm.memset.p0i8.i64(i8* nocapture writeonly, i8, i64, i1 immarg) #5

declare nonnull align 8 dereferenceable(16) %"class.std::basic_istream"* @_ZNSirsERi(%"class.std::basic_istream"* nonnull align 8 dereferenceable(16), i32* nonnull align 4 dereferenceable(4)) local_unnamed_addr #0

; Function Attrs: argmemonly mustprogress nofree nosync nounwind willreturn
declare void @llvm.lifetime.end.p0i8(i64 immarg, i8* nocapture) #4

declare nonnull align 8 dereferenceable(8) %"class.std::basic_ostream"* @_ZNSolsEi(%"class.std::basic_ostream"* nonnull align 8 dereferenceable(8), i32) local_unnamed_addr #0

; Function Attrs: sspstrong uwtable
define internal void @_GLOBAL__sub_I_1251.cpp() #6 section ".text.startup" {
  tail call void @_ZNSt8ios_base4InitC1Ev(%"class.std::ios_base::Init"* nonnull align 1 dereferenceable(1) @_ZStL8__ioinit)
  %1 = tail call i32 @__cxa_atexit(void (i8*)* bitcast (void (%"class.std::ios_base::Init"*)* @_ZNSt8ios_base4InitD1Ev to void (i8*)*), i8* getelementptr inbounds (%"class.std::ios_base::Init", %"class.std::ios_base::Init"* @_ZStL8__ioinit, i64 0, i32 0), i8* nonnull @__dso_handle) #7
  ret void
}


!llvm.module.flags = !{!0, !1, !2, !3}
!llvm.ident = !{!4}

!0 = !{i32 1, !"wchar_size", i32 4}
!1 = !{i32 7, !"PIC Level", i32 2}
!2 = !{i32 7, !"PIE Level", i32 2}
!3 = !{i32 7, !"uwtable", i32 1}
!4 = !{!"clang version 13.0.0"}
!5 = !{!6, !6, i64 0}
!6 = !{!"int", !7, i64 0}
!7 = !{!"omnipotent char", !8, i64 0}
!8 = !{!"Simple C++ TBAA"}
!9 = distinct !{!9, !10}
!10 = !{!"llvm.loop.mustprogress"}
!11 = distinct !{!11, !10}
!12 = distinct !{!12, !10}
